; Function Attrs: mustprogress nofree norecurse nosync nounwind willreturn memory(read, inaccessiblemem: none) uwtable
define dso_local range(i32 0, 64) i32 @match_stat_data(ptr noundef readonly captures(none) %0, ptr noundef readonly captures(none) %1) local_unnamed_addr #1 {
  %3 = getelementptr inbounds nuw i8, ptr %0, i64 8
  %4 = load i32, ptr %3, align 4, !tbaa !15
  %5 = getelementptr inbounds nuw i8, ptr %1, i64 88
  %6 = load i64, ptr %5, align 8, !tbaa !14
  %7 = trunc i64 %6 to i32
  %.not = icmp ne i32 %4, %7
  %spec.select = zext i1 %.not to i32
  %8 = load i32, ptr @trust_ctime, align 4, !tbaa !30
  %9 = icmp ne i32 %8, 0
  %10 = load i32, ptr @check_stat, align 4
  %11 = icmp ne i32 %10, 0
  %or.cond = select i1 %9, i1 %11, i1 false
  br i1 %or.cond, label %.thread, label %17

.thread:                                          ; preds = %2
  %12 = load i32, ptr %0, align 4, !tbaa !11
  %13 = getelementptr inbounds nuw i8, ptr %1, i64 104
  %14 = load i64, ptr %13, align 8, !tbaa !4
  %15 = trunc i64 %14 to i32
  %.not18 = icmp eq i32 %12, %15
  %16 = or disjoint i32 %spec.select, 2
  %spec.select24 = select i1 %.not18, i32 %spec.select, i32 %16
  br label %18

17:                                               ; preds = %2
  %.not19 = icmp eq i32 %10, 0
  br i1 %.not19, label %37, label %18

18:                                               ; preds = %.thread, %17
  %.129 = phi i32 [ %spec.select24, %.thread ], [ %spec.select, %17 ]
  %19 = getelementptr inbounds nuw i8, ptr %0, i64 24
  %20 = load i32, ptr %19, align 4, !tbaa !25
  %21 = getelementptr inbounds nuw i8, ptr %1, i64 28
  %22 = load i32, ptr %21, align 4, !tbaa !24
  %.not20 = icmp eq i32 %20, %22
  br i1 %.not20, label %23, label %28

23:                                               ; preds = %18
  %24 = getelementptr inbounds nuw i8, ptr %0, i64 28
  %25 = load i32, ptr %24, align 4, !tbaa !27
  %26 = getelementptr inbounds nuw i8, ptr %1, i64 32
  %27 = load i32, ptr %26, align 8, !tbaa !26
  %.not21 = icmp eq i32 %25, %27
  br i1 %.not21, label %30, label %28

28:                                               ; preds = %23, %18
  %29 = or i32 %.129, 4
  br label %30

30:                                               ; preds = %28, %23
  %.3 = phi i32 [ %29, %28 ], [ %.129, %23 ]
  %31 = getelementptr inbounds nuw i8, ptr %0, i64 20
  %32 = load i32, ptr %31, align 4, !tbaa !23
  %33 = getelementptr inbounds nuw i8, ptr %1, i64 8
  %34 = load i64, ptr %33, align 8, !tbaa !22
  %35 = trunc i64 %34 to i32
  %.not22 = icmp eq i32 %32, %35
  %36 = or i32 %.3, 16
  %spec.select25 = select i1 %.not22, i32 %.3, i32 %36
  br label %37

37:                                               ; preds = %30, %17
  %.2 = phi i32 [ %spec.select, %17 ], [ %spec.select25, %30 ]
  %38 = getelementptr inbounds nuw i8, ptr %0, i64 32
  %39 = load i32, ptr %38, align 4, !tbaa !29
  %40 = getelementptr inbounds nuw i8, ptr %1, i64 48
  %41 = load i64, ptr %40, align 8, !tbaa !28
  %42 = trunc i64 %41 to i32
  %43 = icmp eq i32 %42, 0
  %44 = icmp ne i64 %41, 0
  %or.cond.i = and i1 %44, %43
  %..i = select i1 %or.cond.i, i32 -2147483648, i32 %42
  %.not23 = icmp eq i32 %39, %..i
  %45 = or i32 %.2, 32
  %spec.select26 = select i1 %.not23, i32 %.2, i32 %45
  ret i32 %spec.select26
}